; Function Attrs: nofree norecurse nosync nounwind sspstrong memory(argmem: read) uwtable
define hidden zeroext i1 @pm_encoding_utf_8_isupper_char(ptr noundef readonly captures(none) %0, i64 noundef %1) #0 {
  %3 = load i8, ptr %0, align 1, !tbaa !7
  %4 = icmp sgt i8 %3, -1
  br i1 %4, label %5, label %7

5:                                                ; preds = %2
  %6 = zext nneg i8 %3 to i64
  br label %pm_unicode_codepoint_match.exit.sink.split

7:                                                ; preds = %2
  %.not2934.not.i = icmp eq i64 %1, 0
  br i1 %.not2934.not.i, label %pm_utf_8_codepoint.exit.thread, label %.lr.ph.preheader.i

.lr.ph.preheader.i:                               ; preds = %7
  %8 = tail call i64 @llvm.smin.i64(i64 %1, i64 4)
  %umax.i = tail call i64 @llvm.umax.i64(i64 %8, i64 1)
  br label %.lr.ph.i

.lr.ph.i:                                         ; preds = %31, %.lr.ph.preheader.i
  %.02337.i = phi i32 [ %24, %31 ], [ undef, %.lr.ph.preheader.i ]
  %.02636.i = phi i64 [ %33, %31 ], [ 0, %.lr.ph.preheader.i ]
  %.02735.i = phi i32 [ %32, %31 ], [ 0, %.lr.ph.preheader.i ]
  %9 = getelementptr i8, ptr %0, i64 %.02636.i
  %10 = load i8, ptr %9, align 1, !tbaa !7
  %11 = zext i8 %10 to i32
  %12 = zext i8 %10 to i64
  %13 = getelementptr [400 x i8], ptr @pm_utf_8_dfa, i64 0, i64 %12
  %14 = load i8, ptr %13, align 1, !tbaa !7
  %15 = zext i8 %14 to i32
  %.not.i = icmp eq i32 %.02735.i, 0
  br i1 %.not.i, label %20, label %16

16:                                               ; preds = %.lr.ph.i
  %17 = and i32 %11, 63
  %18 = shl i32 %.02337.i, 6
  %19 = or disjoint i32 %17, %18
  br label %23

20:                                               ; preds = %.lr.ph.i
  %21 = lshr i32 255, %15
  %22 = and i32 %21, %11
  br label %23

23:                                               ; preds = %20, %16
  %24 = phi i32 [ %19, %16 ], [ %22, %20 ]
  %25 = shl nuw nsw i32 %.02735.i, 4
  %26 = add nuw nsw i32 %25, 256
  %27 = add nuw nsw i32 %26, %15
  %28 = zext nneg i32 %27 to i64
  %29 = getelementptr [400 x i8], ptr @pm_utf_8_dfa, i64 0, i64 %28
  %30 = load i8, ptr %29, align 1, !tbaa !7
  %.not28.i = icmp eq i8 %30, 0
  br i1 %.not28.i, label %pm_utf_8_codepoint.exit, label %31

31:                                               ; preds = %23
  %32 = zext i8 %30 to i32
  %33 = add nuw i64 %.02636.i, 1
  %exitcond.not.i = icmp eq i64 %33, %umax.i
  br i1 %exitcond.not.i, label %pm_utf_8_codepoint.exit.thread, label %.lr.ph.i, !llvm.loop !12

pm_utf_8_codepoint.exit:                          ; preds = %23
  %34 = icmp ult i32 %24, 256
  br i1 %34, label %pm_utf_8_codepoint.exit.thread, label %.preheader

pm_utf_8_codepoint.exit.thread:                   ; preds = %31, %7, %pm_utf_8_codepoint.exit
  %.3.i10 = phi i32 [ %24, %pm_utf_8_codepoint.exit ], [ 0, %7 ], [ 0, %31 ]
  %35 = zext nneg i32 %.3.i10 to i64
  br label %pm_unicode_codepoint_match.exit.sink.split

.preheader:                                       ; preds = %pm_utf_8_codepoint.exit, %44
  %.02135.i = phi i64 [ %.2.i, %44 ], [ 1302, %pm_utf_8_codepoint.exit ]
  %.02234.i = phi i64 [ %.224.i, %44 ], [ 0, %pm_utf_8_codepoint.exit ]
  %36 = sub nuw i64 %.02135.i, %.02234.i
  %37 = lshr i64 %36, 1
  %38 = add i64 %37, %.02234.i
  %spec.select.i = and i64 %38, -2
  %39 = getelementptr i32, ptr @unicode_isupper_codepoints, i64 %spec.select.i
  %40 = load i32, ptr %39, align 8, !tbaa !13
  %.not29.i = icmp ult i32 %24, %40
  br i1 %.not29.i, label %44, label %41

41:                                               ; preds = %.preheader
  %42 = getelementptr i8, ptr %39, i64 4
  %43 = load i32, ptr %42, align 4, !tbaa !13
  %.not30.i = icmp ugt i32 %24, %43
  br i1 %.not30.i, label %44, label %pm_unicode_codepoint_match.exit

44:                                               ; preds = %41, %.preheader
  %.2.i = phi i64 [ %spec.select.i, %.preheader ], [ %.02135.i, %41 ]
  %45 = add i64 %spec.select.i, 2
  %.224.i = select i1 %.not29.i, i64 %.02234.i, i64 %45
  %46 = icmp ult i64 %.224.i, %.2.i
  br i1 %46, label %.preheader, label %pm_unicode_codepoint_match.exit, !llvm.loop !15

pm_unicode_codepoint_match.exit.sink.split:       ; preds = %5, %pm_utf_8_codepoint.exit.thread
  %.sink15 = phi i64 [ %35, %pm_utf_8_codepoint.exit.thread ], [ %6, %5 ]
  %47 = getelementptr [256 x i8], ptr @pm_encoding_unicode_table, i64 0, i64 %.sink15
  %48 = load i8, ptr %47, align 1, !tbaa !7
  %49 = and i8 %48, 4
  %50 = icmp ne i8 %49, 0
  br label %pm_unicode_codepoint_match.exit

pm_unicode_codepoint_match.exit:                  ; preds = %41, %44, %pm_unicode_codepoint_match.exit.sink.split
  %.0 = phi i1 [ %50, %pm_unicode_codepoint_match.exit.sink.split ], [ false, %44 ], [ true, %41 ]
  ret i1 %.0
}